; ModuleID = '50/2684.c'
source_filename = "50/2684.c"
target datalayout = "e-m:e-p270:32:32-p271:32:32-p272:64:64-i64:64-f80:128-n8:16:32:64-S128"
target triple = "x86_64-pc-linux-gnu"

@.str = private unnamed_addr constant [3 x i8] c"%d\00", align 1
@.str.1 = private unnamed_addr constant [4 x i8] c"%d\0A\00", align 1

; Function Attrs: noinline nounwind uwtable
define dso_local i32 @main() #0 {
  %1 = alloca i32, align 4
  %2 = alloca [12 x i32], align 16
  %3 = alloca i32, align 4
  %4 = alloca [12 x i32], align 16
  %5 = alloca i32, align 4
  store i32 0, i32* %1, align 4
  %6 = bitcast [12 x i32]* %4 to i8*
  call void @llvm.memset.p0i8.i64(i8* align 16 %6, i8 0, i64 48, i1 false)
  %7 = getelementptr inbounds [12 x i32], [12 x i32]* %2, i64 0, i64 0
  store i32 31, i32* %7, align 16
  %8 = getelementptr inbounds [12 x i32], [12 x i32]* %2, i64 0, i64 1
  store i32 28, i32* %8, align 4
  %9 = getelementptr inbounds [12 x i32], [12 x i32]* %2, i64 0, i64 2
  store i32 31, i32* %9, align 8
  %10 = getelementptr inbounds [12 x i32], [12 x i32]* %2, i64 0, i64 3
  store i32 30, i32* %10, align 4
  %11 = getelementptr inbounds [12 x i32], [12 x i32]* %2, i64 0, i64 4
  store i32 31, i32* %11, align 16
  %12 = getelementptr inbounds [12 x i32], [12 x i32]* %2, i64 0, i64 5
  store i32 30, i32* %12, align 4
  %13 = getelementptr inbounds [12 x i32], [12 x i32]* %2, i64 0, i64 6
  store i32 31, i32* %13, align 8
  %14 = getelementptr inbounds [12 x i32], [12 x i32]* %2, i64 0, i64 7
  store i32 31, i32* %14, align 4
  %15 = getelementptr inbounds [12 x i32], [12 x i32]* %2, i64 0, i64 8
  store i32 30, i32* %15, align 16
  %16 = getelementptr inbounds [12 x i32], [12 x i32]* %2, i64 0, i64 9
  store i32 31, i32* %16, align 4
  %17 = getelementptr inbounds [12 x i32], [12 x i32]* %2, i64 0, i64 10
  store i32 30, i32* %17, align 8
  %18 = getelementptr inbounds [12 x i32], [12 x i32]* %2, i64 0, i64 11
  store i32 31, i32* %18, align 4
  %19 = call i32 (i8*, ...) @__isoc99_scanf(i8* getelementptr inbounds ([3 x i8], [3 x i8]* @.str, i64 0, i64 0), i32* %3)
  %20 = load i32, i32* %3, align 4
  %21 = add nsw i32 %20, 12
  %22 = srem i32 %21, 7
  %23 = getelementptr inbounds [12 x i32], [12 x i32]* %4, i64 0, i64 0
  store i32 %22, i32* %23, align 16
  store i32 1, i32* %5, align 4
  br label %24

24:                                               ; preds = %43, %0
  %25 = load i32, i32* %5, align 4
  %26 = icmp slt i32 %25, 12
  br i1 %26, label %27, label %46

27:                                               ; preds = %24
  %28 = load i32, i32* %5, align 4
  %29 = sub nsw i32 %28, 1
  %30 = sext i32 %29 to i64
  %31 = getelementptr inbounds [12 x i32], [12 x i32]* %4, i64 0, i64 %30
  %32 = load i32, i32* %31, align 4
  %33 = load i32, i32* %5, align 4
  %34 = sub nsw i32 %33, 1
  %35 = sext i32 %34 to i64
  %36 = getelementptr inbounds [12 x i32], [12 x i32]* %2, i64 0, i64 %35
  %37 = load i32, i32* %36, align 4
  %38 = add nsw i32 %32, %37
  %39 = srem i32 %38, 7
  %40 = load i32, i32* %5, align 4
  %41 = sext i32 %40 to i64
  %42 = getelementptr inbounds [12 x i32], [12 x i32]* %4, i64 0, i64 %41
  store i32 %39, i32* %42, align 4
  br label %43

43:                                               ; preds = %27
  %44 = load i32, i32* %5, align 4
  %45 = add nsw i32 %44, 1
  store i32 %45, i32* %5, align 4
  br label %24

46:                                               ; preds = %24
  store i32 0, i32* %5, align 4
  br label %47

47:                                               ; preds = %61, %46
  %48 = load i32, i32* %5, align 4
  %49 = icmp slt i32 %48, 12
  br i1 %49, label %50, label %64

50:                                               ; preds = %47
  %51 = load i32, i32* %5, align 4
  %52 = sext i32 %51 to i64
  %53 = getelementptr inbounds [12 x i32], [12 x i32]* %4, i64 0, i64 %52
  %54 = load i32, i32* %53, align 4
  %55 = icmp eq i32 %54, 5
  br i1 %55, label %56, label %60

56:                                               ; preds = %50
  %57 = load i32, i32* %5, align 4
  %58 = add nsw i32 %57, 1
  %59 = call i32 (i8*, ...) @printf(i8* getelementptr inbounds ([4 x i8], [4 x i8]* @.str.1, i64 0, i64 0), i32 %58)
  br label %60

60:                                               ; preds = %56, %50
  br label %61

61:                                               ; preds = %60
  %62 = load i32, i32* %5, align 4
  %63 = add nsw i32 %62, 1
  store i32 %63, i32* %5, align 4
  br label %47

64:                                               ; preds = %47
  %65 = load i32, i32* %1, align 4
  ret i32 %65
}

; Function Attrs: argmemonly nounwind willreturn
declare void @llvm.memset.p0i8.i64(i8* nocapture writeonly, i8, i64, i1 immarg) #1

declare dso_local i32 @__isoc99_scanf(i8*, ...) #2

declare dso_local i32 @printf(i8*, ...) #2


!llvm.module.flags = !{!0}
!llvm.ident = !{!1}

!0 = !{i32 1, !"wchar_size", i32 4}
!1 = !{!"clang version 10.0.0-4ubuntu1 "}
